
test.elf:     file format elf32-littlearm


Disassembly of section .text:

08000000 <table_interrupt_vector>:
 8000000:	00 20 00 20 71 03 00 08 d1 03 00 08 d1 03 00 08     . . q...........
 8000010:	d1 03 00 08 d1 03 00 08 d1 03 00 08 00 00 00 00     ................
	...
 800002c:	d1 03 00 08 d1 03 00 08 00 00 00 00 d1 03 00 08     ................
 800003c:	d1 03 00 08 d1 03 00 08 d1 03 00 08 d1 03 00 08     ................
 800004c:	d1 03 00 08 d1 03 00 08 d1 03 00 08 d1 03 00 08     ................
 800005c:	d1 03 00 08 d1 03 00 08 d1 03 00 08 d1 03 00 08     ................
 800006c:	d1 03 00 08 d1 03 00 08 d1 03 00 08 d1 03 00 08     ................
 800007c:	d1 03 00 08 d1 03 00 08 d1 03 00 08 d1 03 00 08     ................
 800008c:	d1 03 00 08 d1 03 00 08 d1 03 00 08 d1 03 00 08     ................
 800009c:	d1 03 00 08 d1 03 00 08 d1 03 00 08 d1 03 00 08     ................
 80000ac:	d1 03 00 08 01 03 00 08 d1 03 00 08 d1 03 00 08     ................
 80000bc:	d1 03 00 08 d1 03 00 08 d1 03 00 08 d1 03 00 08     ................
 80000cc:	d1 03 00 08 d1 03 00 08 d1 03 00 08 d1 03 00 08     ................
 80000dc:	d1 03 00 08 d1 03 00 08 d1 03 00 08 d1 03 00 08     ................

080000ec <SystemInit>:
 80000ec:	b480      	push	{r7}
 80000ee:	af00      	add	r7, sp, #0
 80000f0:	4a7d      	ldr	r2, [pc, #500]	; (80002e8 <SystemInit+0x1fc>)
 80000f2:	4b7d      	ldr	r3, [pc, #500]	; (80002e8 <SystemInit+0x1fc>)
 80000f4:	681b      	ldr	r3, [r3, #0]
 80000f6:	f443 3380 	orr.w	r3, r3, #65536	; 0x10000
 80000fa:	6013      	str	r3, [r2, #0]
 80000fc:	bf00      	nop
 80000fe:	4b7a      	ldr	r3, [pc, #488]	; (80002e8 <SystemInit+0x1fc>)
 8000100:	681b      	ldr	r3, [r3, #0]
 8000102:	f403 3300 	and.w	r3, r3, #131072	; 0x20000
 8000106:	2b00      	cmp	r3, #0
 8000108:	d0f9      	beq.n	80000fe <SystemInit+0x12>
 800010a:	4a77      	ldr	r2, [pc, #476]	; (80002e8 <SystemInit+0x1fc>)
 800010c:	4b76      	ldr	r3, [pc, #472]	; (80002e8 <SystemInit+0x1fc>)
 800010e:	685b      	ldr	r3, [r3, #4]
 8000110:	f423 137c 	bic.w	r3, r3, #4128768	; 0x3f0000
 8000114:	6053      	str	r3, [r2, #4]
 8000116:	4a74      	ldr	r2, [pc, #464]	; (80002e8 <SystemInit+0x1fc>)
 8000118:	4b73      	ldr	r3, [pc, #460]	; (80002e8 <SystemInit+0x1fc>)
 800011a:	685b      	ldr	r3, [r3, #4]
 800011c:	f443 3380 	orr.w	r3, r3, #65536	; 0x10000
 8000120:	6053      	str	r3, [r2, #4]
 8000122:	4a71      	ldr	r2, [pc, #452]	; (80002e8 <SystemInit+0x1fc>)
 8000124:	4b70      	ldr	r3, [pc, #448]	; (80002e8 <SystemInit+0x1fc>)
 8000126:	685b      	ldr	r3, [r3, #4]
 8000128:	f443 13e0 	orr.w	r3, r3, #1835008	; 0x1c0000
 800012c:	6053      	str	r3, [r2, #4]
 800012e:	4a6e      	ldr	r2, [pc, #440]	; (80002e8 <SystemInit+0x1fc>)
 8000130:	4b6d      	ldr	r3, [pc, #436]	; (80002e8 <SystemInit+0x1fc>)
 8000132:	681b      	ldr	r3, [r3, #0]
 8000134:	f043 7380 	orr.w	r3, r3, #16777216	; 0x1000000
 8000138:	6013      	str	r3, [r2, #0]
 800013a:	bf00      	nop
 800013c:	4b6a      	ldr	r3, [pc, #424]	; (80002e8 <SystemInit+0x1fc>)
 800013e:	681b      	ldr	r3, [r3, #0]
 8000140:	f003 7300 	and.w	r3, r3, #33554432	; 0x2000000
 8000144:	2b00      	cmp	r3, #0
 8000146:	d0f9      	beq.n	800013c <SystemInit+0x50>
 8000148:	4a68      	ldr	r2, [pc, #416]	; (80002ec <SystemInit+0x200>)
 800014a:	4b68      	ldr	r3, [pc, #416]	; (80002ec <SystemInit+0x200>)
 800014c:	681b      	ldr	r3, [r3, #0]
 800014e:	f043 0310 	orr.w	r3, r3, #16
 8000152:	6013      	str	r3, [r2, #0]
 8000154:	4a65      	ldr	r2, [pc, #404]	; (80002ec <SystemInit+0x200>)
 8000156:	4b65      	ldr	r3, [pc, #404]	; (80002ec <SystemInit+0x200>)
 8000158:	681b      	ldr	r3, [r3, #0]
 800015a:	f023 0303 	bic.w	r3, r3, #3
 800015e:	6013      	str	r3, [r2, #0]
 8000160:	4a62      	ldr	r2, [pc, #392]	; (80002ec <SystemInit+0x200>)
 8000162:	4b62      	ldr	r3, [pc, #392]	; (80002ec <SystemInit+0x200>)
 8000164:	681b      	ldr	r3, [r3, #0]
 8000166:	f043 0302 	orr.w	r3, r3, #2
 800016a:	6013      	str	r3, [r2, #0]
 800016c:	4a5e      	ldr	r2, [pc, #376]	; (80002e8 <SystemInit+0x1fc>)
 800016e:	4b5e      	ldr	r3, [pc, #376]	; (80002e8 <SystemInit+0x1fc>)
 8000170:	685b      	ldr	r3, [r3, #4]
 8000172:	f443 63a0 	orr.w	r3, r3, #1280	; 0x500
 8000176:	6053      	str	r3, [r2, #4]
 8000178:	4a5b      	ldr	r2, [pc, #364]	; (80002e8 <SystemInit+0x1fc>)
 800017a:	4b5b      	ldr	r3, [pc, #364]	; (80002e8 <SystemInit+0x1fc>)
 800017c:	685b      	ldr	r3, [r3, #4]
 800017e:	f023 0303 	bic.w	r3, r3, #3
 8000182:	6053      	str	r3, [r2, #4]
 8000184:	4a58      	ldr	r2, [pc, #352]	; (80002e8 <SystemInit+0x1fc>)
 8000186:	4b58      	ldr	r3, [pc, #352]	; (80002e8 <SystemInit+0x1fc>)
 8000188:	685b      	ldr	r3, [r3, #4]
 800018a:	f043 0302 	orr.w	r3, r3, #2
 800018e:	6053      	str	r3, [r2, #4]
 8000190:	bf00      	nop
 8000192:	4b55      	ldr	r3, [pc, #340]	; (80002e8 <SystemInit+0x1fc>)
 8000194:	685b      	ldr	r3, [r3, #4]
 8000196:	f003 030c 	and.w	r3, r3, #12
 800019a:	2b08      	cmp	r3, #8
 800019c:	d1f9      	bne.n	8000192 <SystemInit+0xa6>
 800019e:	4a52      	ldr	r2, [pc, #328]	; (80002e8 <SystemInit+0x1fc>)
 80001a0:	4b51      	ldr	r3, [pc, #324]	; (80002e8 <SystemInit+0x1fc>)
 80001a2:	69db      	ldr	r3, [r3, #28]
 80001a4:	f043 0301 	orr.w	r3, r3, #1
 80001a8:	61d3      	str	r3, [r2, #28]
 80001aa:	4a4f      	ldr	r2, [pc, #316]	; (80002e8 <SystemInit+0x1fc>)
 80001ac:	4b4e      	ldr	r3, [pc, #312]	; (80002e8 <SystemInit+0x1fc>)
 80001ae:	699b      	ldr	r3, [r3, #24]
 80001b0:	f043 0305 	orr.w	r3, r3, #5
 80001b4:	6193      	str	r3, [r2, #24]
 80001b6:	4b4e      	ldr	r3, [pc, #312]	; (80002f0 <SystemInit+0x204>)
 80001b8:	2200      	movs	r2, #0
 80001ba:	601a      	str	r2, [r3, #0]
 80001bc:	4a4c      	ldr	r2, [pc, #304]	; (80002f0 <SystemInit+0x204>)
 80001be:	4b4c      	ldr	r3, [pc, #304]	; (80002f0 <SystemInit+0x204>)
 80001c0:	681b      	ldr	r3, [r3, #0]
 80001c2:	f043 030b 	orr.w	r3, r3, #11
 80001c6:	6013      	str	r3, [r2, #0]
 80001c8:	4a49      	ldr	r2, [pc, #292]	; (80002f0 <SystemInit+0x204>)
 80001ca:	4b49      	ldr	r3, [pc, #292]	; (80002f0 <SystemInit+0x204>)
 80001cc:	681b      	ldr	r3, [r3, #0]
 80001ce:	f043 03b0 	orr.w	r3, r3, #176	; 0xb0
 80001d2:	6013      	str	r3, [r2, #0]
 80001d4:	4a46      	ldr	r2, [pc, #280]	; (80002f0 <SystemInit+0x204>)
 80001d6:	4b46      	ldr	r3, [pc, #280]	; (80002f0 <SystemInit+0x204>)
 80001d8:	681b      	ldr	r3, [r3, #0]
 80001da:	f443 6330 	orr.w	r3, r3, #2816	; 0xb00
 80001de:	6013      	str	r3, [r2, #0]
 80001e0:	4a43      	ldr	r2, [pc, #268]	; (80002f0 <SystemInit+0x204>)
 80001e2:	4b43      	ldr	r3, [pc, #268]	; (80002f0 <SystemInit+0x204>)
 80001e4:	681b      	ldr	r3, [r3, #0]
 80001e6:	f443 4330 	orr.w	r3, r3, #45056	; 0xb000
 80001ea:	6013      	str	r3, [r2, #0]
 80001ec:	f04f 4380 	mov.w	r3, #1073741824	; 0x40000000
 80001f0:	2223      	movs	r2, #35	; 0x23
 80001f2:	851a      	strh	r2, [r3, #40]	; 0x28
 80001f4:	f04f 4380 	mov.w	r3, #1073741824	; 0x40000000
 80001f8:	f44f 727a 	mov.w	r2, #1000	; 0x3e8
 80001fc:	859a      	strh	r2, [r3, #44]	; 0x2c
 80001fe:	f04f 4380 	mov.w	r3, #1073741824	; 0x40000000
 8000202:	f44f 72fa 	mov.w	r2, #500	; 0x1f4
 8000206:	869a      	strh	r2, [r3, #52]	; 0x34
 8000208:	f04f 4380 	mov.w	r3, #1073741824	; 0x40000000
 800020c:	f44f 7296 	mov.w	r2, #300	; 0x12c
 8000210:	871a      	strh	r2, [r3, #56]	; 0x38
 8000212:	f04f 4380 	mov.w	r3, #1073741824	; 0x40000000
 8000216:	2264      	movs	r2, #100	; 0x64
 8000218:	879a      	strh	r2, [r3, #60]	; 0x3c
 800021a:	f04f 4380 	mov.w	r3, #1073741824	; 0x40000000
 800021e:	2232      	movs	r2, #50	; 0x32
 8000220:	f8a3 2040 	strh.w	r2, [r3, #64]	; 0x40
 8000224:	f04f 4380 	mov.w	r3, #1073741824	; 0x40000000
 8000228:	2200      	movs	r2, #0
 800022a:	831a      	strh	r2, [r3, #24]
 800022c:	f04f 4280 	mov.w	r2, #1073741824	; 0x40000000
 8000230:	f04f 4380 	mov.w	r3, #1073741824	; 0x40000000
 8000234:	8b1b      	ldrh	r3, [r3, #24]
 8000236:	b29b      	uxth	r3, r3
 8000238:	f043 0368 	orr.w	r3, r3, #104	; 0x68
 800023c:	b29b      	uxth	r3, r3
 800023e:	8313      	strh	r3, [r2, #24]
 8000240:	f04f 4280 	mov.w	r2, #1073741824	; 0x40000000
 8000244:	f04f 4380 	mov.w	r3, #1073741824	; 0x40000000
 8000248:	8b1b      	ldrh	r3, [r3, #24]
 800024a:	b29b      	uxth	r3, r3
 800024c:	f443 43d0 	orr.w	r3, r3, #26624	; 0x6800
 8000250:	b29b      	uxth	r3, r3
 8000252:	8313      	strh	r3, [r2, #24]
 8000254:	f04f 4280 	mov.w	r2, #1073741824	; 0x40000000
 8000258:	f04f 4380 	mov.w	r3, #1073741824	; 0x40000000
 800025c:	8b9b      	ldrh	r3, [r3, #28]
 800025e:	b29b      	uxth	r3, r3
 8000260:	f043 0368 	orr.w	r3, r3, #104	; 0x68
 8000264:	b29b      	uxth	r3, r3
 8000266:	8393      	strh	r3, [r2, #28]
 8000268:	f04f 4280 	mov.w	r2, #1073741824	; 0x40000000
 800026c:	f04f 4380 	mov.w	r3, #1073741824	; 0x40000000
 8000270:	8b9b      	ldrh	r3, [r3, #28]
 8000272:	b29b      	uxth	r3, r3
 8000274:	f443 43d0 	orr.w	r3, r3, #26624	; 0x6800
 8000278:	b29b      	uxth	r3, r3
 800027a:	8393      	strh	r3, [r2, #28]
 800027c:	f04f 4280 	mov.w	r2, #1073741824	; 0x40000000
 8000280:	f04f 4380 	mov.w	r3, #1073741824	; 0x40000000
 8000284:	8c1b      	ldrh	r3, [r3, #32]
 8000286:	b29b      	uxth	r3, r3
 8000288:	f043 0301 	orr.w	r3, r3, #1
 800028c:	b29b      	uxth	r3, r3
 800028e:	8413      	strh	r3, [r2, #32]
 8000290:	f04f 4280 	mov.w	r2, #1073741824	; 0x40000000
 8000294:	f04f 4380 	mov.w	r3, #1073741824	; 0x40000000
 8000298:	8c1b      	ldrh	r3, [r3, #32]
 800029a:	b29b      	uxth	r3, r3
 800029c:	f043 0310 	orr.w	r3, r3, #16
 80002a0:	b29b      	uxth	r3, r3
 80002a2:	8413      	strh	r3, [r2, #32]
 80002a4:	f04f 4280 	mov.w	r2, #1073741824	; 0x40000000
 80002a8:	f04f 4380 	mov.w	r3, #1073741824	; 0x40000000
 80002ac:	8c1b      	ldrh	r3, [r3, #32]
 80002ae:	b29b      	uxth	r3, r3
 80002b0:	f443 7380 	orr.w	r3, r3, #256	; 0x100
 80002b4:	b29b      	uxth	r3, r3
 80002b6:	8413      	strh	r3, [r2, #32]
 80002b8:	f04f 4280 	mov.w	r2, #1073741824	; 0x40000000
 80002bc:	f04f 4380 	mov.w	r3, #1073741824	; 0x40000000
 80002c0:	8c1b      	ldrh	r3, [r3, #32]
 80002c2:	b29b      	uxth	r3, r3
 80002c4:	f443 5380 	orr.w	r3, r3, #4096	; 0x1000
 80002c8:	b29b      	uxth	r3, r3
 80002ca:	8413      	strh	r3, [r2, #32]
 80002cc:	f04f 4280 	mov.w	r2, #1073741824	; 0x40000000
 80002d0:	f04f 4380 	mov.w	r3, #1073741824	; 0x40000000
 80002d4:	881b      	ldrh	r3, [r3, #0]
 80002d6:	b29b      	uxth	r3, r3
 80002d8:	f043 0301 	orr.w	r3, r3, #1
 80002dc:	b29b      	uxth	r3, r3
 80002de:	8013      	strh	r3, [r2, #0]
 80002e0:	46bd      	mov	sp, r7
 80002e2:	f85d 7b04 	ldr.w	r7, [sp], #4
 80002e6:	4770      	bx	lr
 80002e8:	40021000 	.word	0x40021000
 80002ec:	40022000 	.word	0x40022000
 80002f0:	40010800 	.word	0x40010800

080002f4 <main>:
 80002f4:	b580      	push	{r7, lr}
 80002f6:	af00      	add	r7, sp, #0
 80002f8:	f7ff fef8 	bl	80000ec <SystemInit>
 80002fc:	e7fe      	b.n	80002fc <main+0x8>
 80002fe:	bf00      	nop

08000300 <TIM2_IRQHandler>:
 8000300:	b480      	push	{r7}
 8000302:	af00      	add	r7, sp, #0
 8000304:	f04f 4380 	mov.w	r3, #1073741824	; 0x40000000
 8000308:	8a1b      	ldrh	r3, [r3, #16]
 800030a:	b29b      	uxth	r3, r3
 800030c:	f003 0301 	and.w	r3, r3, #1
 8000310:	2b00      	cmp	r3, #0
 8000312:	d00f      	beq.n	8000334 <TIM2_IRQHandler+0x34>
 8000314:	f04f 4280 	mov.w	r2, #1073741824	; 0x40000000
 8000318:	f04f 4380 	mov.w	r3, #1073741824	; 0x40000000
 800031c:	8a1b      	ldrh	r3, [r3, #16]
 800031e:	b29b      	uxth	r3, r3
 8000320:	f023 0301 	bic.w	r3, r3, #1
 8000324:	b29b      	uxth	r3, r3
 8000326:	8213      	strh	r3, [r2, #16]
 8000328:	4a10      	ldr	r2, [pc, #64]	; (800036c <TIM2_IRQHandler+0x6c>)
 800032a:	4b10      	ldr	r3, [pc, #64]	; (800036c <TIM2_IRQHandler+0x6c>)
 800032c:	68db      	ldr	r3, [r3, #12]
 800032e:	f423 5300 	bic.w	r3, r3, #8192	; 0x2000
 8000332:	60d3      	str	r3, [r2, #12]
 8000334:	f04f 4380 	mov.w	r3, #1073741824	; 0x40000000
 8000338:	8a1b      	ldrh	r3, [r3, #16]
 800033a:	b29b      	uxth	r3, r3
 800033c:	f003 0302 	and.w	r3, r3, #2
 8000340:	2b00      	cmp	r3, #0
 8000342:	d00f      	beq.n	8000364 <TIM2_IRQHandler+0x64>
 8000344:	f04f 4280 	mov.w	r2, #1073741824	; 0x40000000
 8000348:	f04f 4380 	mov.w	r3, #1073741824	; 0x40000000
 800034c:	8a1b      	ldrh	r3, [r3, #16]
 800034e:	b29b      	uxth	r3, r3
 8000350:	f023 0302 	bic.w	r3, r3, #2
 8000354:	b29b      	uxth	r3, r3
 8000356:	8213      	strh	r3, [r2, #16]
 8000358:	4a04      	ldr	r2, [pc, #16]	; (800036c <TIM2_IRQHandler+0x6c>)
 800035a:	4b04      	ldr	r3, [pc, #16]	; (800036c <TIM2_IRQHandler+0x6c>)
 800035c:	68db      	ldr	r3, [r3, #12]
 800035e:	f443 5300 	orr.w	r3, r3, #8192	; 0x2000
 8000362:	60d3      	str	r3, [r2, #12]
 8000364:	46bd      	mov	sp, r7
 8000366:	f85d 7b04 	ldr.w	r7, [sp], #4
 800036a:	4770      	bx	lr
 800036c:	40011000 	.word	0x40011000

08000370 <handler_reset>:
 8000370:	b580      	push	{r7, lr}
 8000372:	b082      	sub	sp, #8
 8000374:	af00      	add	r7, sp, #0
 8000376:	4b11      	ldr	r3, [pc, #68]	; (80003bc <handler_reset+0x4c>)
 8000378:	607b      	str	r3, [r7, #4]
 800037a:	4b11      	ldr	r3, [pc, #68]	; (80003c0 <handler_reset+0x50>)
 800037c:	603b      	str	r3, [r7, #0]
 800037e:	e007      	b.n	8000390 <handler_reset+0x20>
 8000380:	683b      	ldr	r3, [r7, #0]
 8000382:	1d1a      	adds	r2, r3, #4
 8000384:	603a      	str	r2, [r7, #0]
 8000386:	687a      	ldr	r2, [r7, #4]
 8000388:	1d11      	adds	r1, r2, #4
 800038a:	6079      	str	r1, [r7, #4]
 800038c:	6812      	ldr	r2, [r2, #0]
 800038e:	601a      	str	r2, [r3, #0]
 8000390:	683b      	ldr	r3, [r7, #0]
 8000392:	4a0c      	ldr	r2, [pc, #48]	; (80003c4 <handler_reset+0x54>)
 8000394:	4293      	cmp	r3, r2
 8000396:	d3f3      	bcc.n	8000380 <handler_reset+0x10>
 8000398:	4b0b      	ldr	r3, [pc, #44]	; (80003c8 <handler_reset+0x58>)
 800039a:	603b      	str	r3, [r7, #0]
 800039c:	e004      	b.n	80003a8 <handler_reset+0x38>
 800039e:	683b      	ldr	r3, [r7, #0]
 80003a0:	1d1a      	adds	r2, r3, #4
 80003a2:	603a      	str	r2, [r7, #0]
 80003a4:	2200      	movs	r2, #0
 80003a6:	601a      	str	r2, [r3, #0]
 80003a8:	683b      	ldr	r3, [r7, #0]
 80003aa:	4a08      	ldr	r2, [pc, #32]	; (80003cc <handler_reset+0x5c>)
 80003ac:	4293      	cmp	r3, r2
 80003ae:	d3f6      	bcc.n	800039e <handler_reset+0x2e>
 80003b0:	f7ff ffa0 	bl	80002f4 <main>
 80003b4:	3708      	adds	r7, #8
 80003b6:	46bd      	mov	sp, r7
 80003b8:	bd80      	pop	{r7, pc}
 80003ba:	bf00      	nop
 80003bc:	080003d8 	.word	0x080003d8
 80003c0:	20000000 	.word	0x20000000
 80003c4:	2000000c 	.word	0x2000000c
 80003c8:	2000000c 	.word	0x2000000c
 80003cc:	20000010 	.word	0x20000010

080003d0 <default_handler>:
 80003d0:	b480      	push	{r7}
 80003d2:	af00      	add	r7, sp, #0
 80003d4:	e7fe      	b.n	80003d4 <default_handler+0x4>
 80003d6:	bf00      	nop
